(dp0
S'ham'
p1
ccopy_reg
_reconstructor
p2
(cModel
Model
p3
c__builtin__
object
p4
Ntp5
Rp6
(dp7
S'wordCountDict'
p8
(dp9
S'the'
p10
I1
ssS'modelName'
p11
S'ham'
p12
sS'instanceName'
p13
NsbsS'spam'
p14
(lp15
s.(dp0
.(dp0
.(dp0
.(dp0
.(dp0
.(dp0
.(dp0
.(dp0
.(dp0
.(dp0
.(dp0
.