(dp0
S'ham'
p1
ccopy_reg
_reconstructor
p2
(cModel
Model
p3
c__builtin__
object
p4
Ntp5
Rp6
(dp7
S'wordCountDict'
p8
(dp9
S'the'
p10
I1
ssS'modelName'
p11
S'ham'
p12
sS'instanceName'
p13
NsbsS'spam'
p14
g2
(g3
g4
Ntp15
Rp16
(dp17
g8
(dp18
S'the'
p19
I1
ssg11
S'spam'
p20
sg13
Nsbs.(dp0
.(dp0
.